target datalayout = "e-m:e-p270:32:32-p271:32:32-p272:64:64-i64:64-i128:128-f80:128-n8:16:32:64-S128"
target triple = "x86_64-pc-linux-gnu"

%"struct.duckdb_zstd::BIT_DStream_t" = type { i64, i32, ptr, ptr, ptr }

; Function Attrs: inlinehint mustprogress nounwind uwtable
define internal noundef i64 @_ZN11duckdb_zstdL10MEM_swap64Em(i64 noundef %0) #4 {
  %2 = alloca i64, align 8
  store i64 %0, ptr %2, align 8, !tbaa !13
  %3 = load i64, ptr %2, align 8, !tbaa !13
  %4 = call i64 @llvm.bswap.i64(i64 %3)
  ret i64 %4
}

; Function Attrs: inlinehint mustprogress nounwind uwtable
define internal noundef i64 @_ZN11duckdb_zstdL10MEM_read64EPKv(ptr noundef %0) #4 {
  %2 = alloca ptr, align 8
  store ptr %0, ptr %2, align 8, !tbaa !12
  %3 = load ptr, ptr %2, align 8, !tbaa !12
  %4 = load i64, ptr %3, align 1, !tbaa !13
  ret i64 %4
}

; Function Attrs: inlinehint mustprogress nounwind uwtable
define internal noundef i32 @_ZN11duckdb_zstdL10MEM_swap32Ej(i32 noundef %0) #4 {
  %2 = alloca i32, align 4
  store i32 %0, ptr %2, align 4, !tbaa !10
  %3 = load i32, ptr %2, align 4, !tbaa !10
  %4 = call i32 @llvm.bswap.i32(i32 %3)
  ret i32 %4
}

; Function Attrs: inlinehint mustprogress nounwind uwtable
define internal noundef i32 @_ZN11duckdb_zstdL10MEM_read32EPKv(ptr noundef %0) #4 {
  %2 = alloca ptr, align 8
  store ptr %0, ptr %2, align 8, !tbaa !12
  %3 = load ptr, ptr %2, align 8, !tbaa !12
  %4 = load i32, ptr %3, align 1, !tbaa !10
  ret i32 %4
}

; Function Attrs: inlinehint mustprogress nounwind uwtable
define internal noundef i32 @_ZN11duckdb_zstdL18MEM_isLittleEndianEv() #4 {
  ret i32 1
}

; Function Attrs: inlinehint mustprogress nounwind uwtable
define internal noundef i32 @_ZN11duckdb_zstdL24ZSTD_countLeadingZeros32Ej(i32 noundef %0) #4 {
  %2 = alloca i32, align 4
  store i32 %0, ptr %2, align 4, !tbaa !10
  %3 = load i32, ptr %2, align 4, !tbaa !10
  %4 = call i32 @llvm.ctlz.i32(i32 %3, i1 true)
  ret i32 %4
}

; Function Attrs: inlinehint mustprogress uwtable
define internal noundef i64 @_ZN11duckdb_zstdL12MEM_readLE64EPKv(ptr noundef %0) #5 {
  %2 = alloca i64, align 8
  %3 = alloca ptr, align 8
  store ptr %0, ptr %3, align 8, !tbaa !12
  %4 = call noundef i32 @_ZN11duckdb_zstdL18MEM_isLittleEndianEv()
  %5 = icmp ne i32 %4, 0
  br i1 %5, label %6, label %9

6:                                                ; preds = %1
  %7 = load ptr, ptr %3, align 8, !tbaa !12
  %8 = call noundef i64 @_ZN11duckdb_zstdL10MEM_read64EPKv(ptr noundef %7)
  store i64 %8, ptr %2, align 8
  br label %13

9:                                                ; preds = %1
  %10 = load ptr, ptr %3, align 8, !tbaa !12
  %11 = call noundef i64 @_ZN11duckdb_zstdL10MEM_read64EPKv(ptr noundef %10)
  %12 = call noundef i64 @_ZN11duckdb_zstdL10MEM_swap64Em(i64 noundef %11)
  store i64 %12, ptr %2, align 8
  br label %13

13:                                               ; preds = %9, %6
  %14 = load i64, ptr %2, align 8
  ret i64 %14
}

; Function Attrs: inlinehint mustprogress uwtable
define internal noundef i32 @_ZN11duckdb_zstdL12MEM_readLE32EPKv(ptr noundef %0) #5 {
  %2 = alloca i32, align 4
  %3 = alloca ptr, align 8
  store ptr %0, ptr %3, align 8, !tbaa !12
  %4 = call noundef i32 @_ZN11duckdb_zstdL18MEM_isLittleEndianEv()
  %5 = icmp ne i32 %4, 0
  br i1 %5, label %6, label %9

6:                                                ; preds = %1
  %7 = load ptr, ptr %3, align 8, !tbaa !12
  %8 = call noundef i32 @_ZN11duckdb_zstdL10MEM_read32EPKv(ptr noundef %7)
  store i32 %8, ptr %2, align 4
  br label %13

9:                                                ; preds = %1
  %10 = load ptr, ptr %3, align 8, !tbaa !12
  %11 = call noundef i32 @_ZN11duckdb_zstdL10MEM_read32EPKv(ptr noundef %10)
  %12 = call noundef i32 @_ZN11duckdb_zstdL10MEM_swap32Ej(i32 noundef %11)
  store i32 %12, ptr %2, align 4
  br label %13

13:                                               ; preds = %9, %6
  %14 = load i32, ptr %2, align 4
  ret i32 %14
}

; Function Attrs: inlinehint mustprogress nounwind uwtable
define internal noundef i32 @_ZN11duckdb_zstdL10MEM_32bitsEv() #4 {
  ret i32 0
}

; Function Attrs: inlinehint mustprogress uwtable
define internal noundef i32 @_ZN11duckdb_zstdL14ZSTD_highbit32Ej(i32 noundef %0) #5 {
  %2 = alloca i32, align 4
  store i32 %0, ptr %2, align 4, !tbaa !10
  %3 = load i32, ptr %2, align 4, !tbaa !10
  %4 = call noundef i32 @_ZN11duckdb_zstdL24ZSTD_countLeadingZeros32Ej(i32 noundef %3)
  %5 = sub i32 31, %4
  ret i32 %5
}

; Function Attrs: inlinehint mustprogress uwtable
define internal noundef i64 @_ZN11duckdb_zstdL12MEM_readLESTEPKv(ptr noundef %0) #5 {
  %2 = alloca i64, align 8
  %3 = alloca ptr, align 8
  store ptr %0, ptr %3, align 8, !tbaa !12
  %4 = call noundef i32 @_ZN11duckdb_zstdL10MEM_32bitsEv()
  %5 = icmp ne i32 %4, 0
  br i1 %5, label %6, label %10

6:                                                ; preds = %1
  %7 = load ptr, ptr %3, align 8, !tbaa !12
  %8 = call noundef i32 @_ZN11duckdb_zstdL12MEM_readLE32EPKv(ptr noundef %7)
  %9 = zext i32 %8 to i64
  store i64 %9, ptr %2, align 8
  br label %13

10:                                               ; preds = %1
  %11 = load ptr, ptr %3, align 8, !tbaa !12
  %12 = call noundef i64 @_ZN11duckdb_zstdL12MEM_readLE64EPKv(ptr noundef %11)
  store i64 %12, ptr %2, align 8
  br label %13

13:                                               ; preds = %10, %6
  %14 = load i64, ptr %2, align 8
  ret i64 %14
}

; Function Attrs: inlinehint mustprogress uwtable
define internal noundef i64 @_ZN11duckdb_zstdL15BIT_initDStreamEPNS_13BIT_DStream_tEPKvm(ptr noundef %0, ptr noundef %1, i64 noundef %2) #5 {
  %4 = alloca i64, align 8
  %5 = alloca ptr, align 8
  %6 = alloca ptr, align 8
  %7 = alloca i64, align 8
  %8 = alloca i8, align 1
  %9 = alloca i32, align 4
  %10 = alloca i8, align 1
  store ptr %0, ptr %5, align 8, !tbaa !12
  store ptr %1, ptr %6, align 8, !tbaa !12
  store i64 %2, ptr %7, align 8, !tbaa !13
  %11 = load i64, ptr %7, align 8, !tbaa !13
  %12 = icmp ult i64 %11, 1
  br i1 %12, label %13, label %15

13:                                               ; preds = %3
  %14 = load ptr, ptr %5, align 8, !tbaa !12
  call void @llvm.memset.p0.i64(ptr align 8 %14, i8 0, i64 40, i1 false)
  store i64 -72, ptr %4, align 8
  br label %176

15:                                               ; preds = %3
  %16 = load ptr, ptr %6, align 8, !tbaa !12
  %17 = load ptr, ptr %5, align 8, !tbaa !12
  %18 = getelementptr inbounds nuw %"struct.duckdb_zstd::BIT_DStream_t", ptr %17, i32 0, i32 3
  store ptr %16, ptr %18, align 8, !tbaa !39
  %19 = load ptr, ptr %5, align 8, !tbaa !12
  %20 = getelementptr inbounds nuw %"struct.duckdb_zstd::BIT_DStream_t", ptr %19, i32 0, i32 3
  %21 = load ptr, ptr %20, align 8, !tbaa !39
  %22 = getelementptr inbounds nuw i8, ptr %21, i64 8
  %23 = load ptr, ptr %5, align 8, !tbaa !12
  %24 = getelementptr inbounds nuw %"struct.duckdb_zstd::BIT_DStream_t", ptr %23, i32 0, i32 4
  store ptr %22, ptr %24, align 8, !tbaa !41
  %25 = load i64, ptr %7, align 8, !tbaa !13
  %26 = icmp uge i64 %25, 8
  br i1 %26, label %27, label %65

27:                                               ; preds = %15
  %28 = load ptr, ptr %6, align 8, !tbaa !12
  %29 = load i64, ptr %7, align 8, !tbaa !13
  %30 = getelementptr inbounds nuw i8, ptr %28, i64 %29
  %31 = getelementptr inbounds i8, ptr %30, i64 -8
  %32 = load ptr, ptr %5, align 8, !tbaa !12
  %33 = getelementptr inbounds nuw %"struct.duckdb_zstd::BIT_DStream_t", ptr %32, i32 0, i32 2
  store ptr %31, ptr %33, align 8, !tbaa !42
  %34 = load ptr, ptr %5, align 8, !tbaa !12
  %35 = getelementptr inbounds nuw %"struct.duckdb_zstd::BIT_DStream_t", ptr %34, i32 0, i32 2
  %36 = load ptr, ptr %35, align 8, !tbaa !42
  %37 = call noundef i64 @_ZN11duckdb_zstdL12MEM_readLESTEPKv(ptr noundef %36)
  %38 = load ptr, ptr %5, align 8, !tbaa !12
  %39 = getelementptr inbounds nuw %"struct.duckdb_zstd::BIT_DStream_t", ptr %38, i32 0, i32 0
  store i64 %37, ptr %39, align 8, !tbaa !43
  call void @llvm.lifetime.start.p0(i64 1, ptr %8) #13
  %40 = load ptr, ptr %6, align 8, !tbaa !12
  %41 = load i64, ptr %7, align 8, !tbaa !13
  %42 = sub i64 %41, 1
  %43 = getelementptr inbounds nuw i8, ptr %40, i64 %42
  %44 = load i8, ptr %43, align 1, !tbaa !28
  store i8 %44, ptr %8, align 1, !tbaa !28
  %45 = load i8, ptr %8, align 1, !tbaa !28
  %46 = icmp ne i8 %45, 0
  br i1 %46, label %47, label %52

47:                                               ; preds = %27
  %48 = load i8, ptr %8, align 1, !tbaa !28
  %49 = zext i8 %48 to i32
  %50 = call noundef i32 @_ZN11duckdb_zstdL14ZSTD_highbit32Ej(i32 noundef %49)
  %51 = sub i32 8, %50
  br label %53

52:                                               ; preds = %27
  br label %53

53:                                               ; preds = %52, %47
  %54 = phi i32 [ %51, %47 ], [ 0, %52 ]
  %55 = load ptr, ptr %5, align 8, !tbaa !12
  %56 = getelementptr inbounds nuw %"struct.duckdb_zstd::BIT_DStream_t", ptr %55, i32 0, i32 1
  store i32 %54, ptr %56, align 8, !tbaa !44
  %57 = load i8, ptr %8, align 1, !tbaa !28
  %58 = zext i8 %57 to i32
  %59 = icmp eq i32 %58, 0
  br i1 %59, label %60, label %61

60:                                               ; preds = %53
  store i64 -1, ptr %4, align 8
  store i32 1, ptr %9, align 4
  br label %62

61:                                               ; preds = %53
  store i32 0, ptr %9, align 4
  br label %62

62:                                               ; preds = %61, %60
  call void @llvm.lifetime.end.p0(i64 1, ptr %8) #13
  %63 = load i32, ptr %9, align 4
  switch i32 %63, label %178 [
    i32 0, label %64
    i32 1, label %176
  ]

64:                                               ; preds = %62
  br label %174

65:                                               ; preds = %15
  %66 = load ptr, ptr %5, align 8, !tbaa !12
  %67 = getelementptr inbounds nuw %"struct.duckdb_zstd::BIT_DStream_t", ptr %66, i32 0, i32 3
  %68 = load ptr, ptr %67, align 8, !tbaa !39
  %69 = load ptr, ptr %5, align 8, !tbaa !12
  %70 = getelementptr inbounds nuw %"struct.duckdb_zstd::BIT_DStream_t", ptr %69, i32 0, i32 2
  store ptr %68, ptr %70, align 8, !tbaa !42
  %71 = load ptr, ptr %5, align 8, !tbaa !12
  %72 = getelementptr inbounds nuw %"struct.duckdb_zstd::BIT_DStream_t", ptr %71, i32 0, i32 3
  %73 = load ptr, ptr %72, align 8, !tbaa !39
  %74 = load i8, ptr %73, align 1, !tbaa !28
  %75 = zext i8 %74 to i64
  %76 = load ptr, ptr %5, align 8, !tbaa !12
  %77 = getelementptr inbounds nuw %"struct.duckdb_zstd::BIT_DStream_t", ptr %76, i32 0, i32 0
  store i64 %75, ptr %77, align 8, !tbaa !43
  %78 = load i64, ptr %7, align 8, !tbaa !13
  switch i64 %78, label %139 [
    i64 7, label %79
    i64 6, label %89
    i64 5, label %99
    i64 4, label %109
    i64 3, label %119
    i64 2, label %129
  ]

79:                                               ; preds = %65
  %80 = load ptr, ptr %6, align 8, !tbaa !12
  %81 = getelementptr inbounds i8, ptr %80, i64 6
  %82 = load i8, ptr %81, align 1, !tbaa !28
  %83 = zext i8 %82 to i64
  %84 = shl i64 %83, 48
  %85 = load ptr, ptr %5, align 8, !tbaa !12
  %86 = getelementptr inbounds nuw %"struct.duckdb_zstd::BIT_DStream_t", ptr %85, i32 0, i32 0
  %87 = load i64, ptr %86, align 8, !tbaa !43
  %88 = add i64 %87, %84
  store i64 %88, ptr %86, align 8, !tbaa !43
  br label %89

89:                                               ; preds = %65, %79
  %90 = load ptr, ptr %6, align 8, !tbaa !12
  %91 = getelementptr inbounds i8, ptr %90, i64 5
  %92 = load i8, ptr %91, align 1, !tbaa !28
  %93 = zext i8 %92 to i64
  %94 = shl i64 %93, 40
  %95 = load ptr, ptr %5, align 8, !tbaa !12
  %96 = getelementptr inbounds nuw %"struct.duckdb_zstd::BIT_DStream_t", ptr %95, i32 0, i32 0
  %97 = load i64, ptr %96, align 8, !tbaa !43
  %98 = add i64 %97, %94
  store i64 %98, ptr %96, align 8, !tbaa !43
  br label %99

99:                                               ; preds = %65, %89
  %100 = load ptr, ptr %6, align 8, !tbaa !12
  %101 = getelementptr inbounds i8, ptr %100, i64 4
  %102 = load i8, ptr %101, align 1, !tbaa !28
  %103 = zext i8 %102 to i64
  %104 = shl i64 %103, 32
  %105 = load ptr, ptr %5, align 8, !tbaa !12
  %106 = getelementptr inbounds nuw %"struct.duckdb_zstd::BIT_DStream_t", ptr %105, i32 0, i32 0
  %107 = load i64, ptr %106, align 8, !tbaa !43
  %108 = add i64 %107, %104
  store i64 %108, ptr %106, align 8, !tbaa !43
  br label %109

109:                                              ; preds = %65, %99
  %110 = load ptr, ptr %6, align 8, !tbaa !12
  %111 = getelementptr inbounds i8, ptr %110, i64 3
  %112 = load i8, ptr %111, align 1, !tbaa !28
  %113 = zext i8 %112 to i64
  %114 = shl i64 %113, 24
  %115 = load ptr, ptr %5, align 8, !tbaa !12
  %116 = getelementptr inbounds nuw %"struct.duckdb_zstd::BIT_DStream_t", ptr %115, i32 0, i32 0
  %117 = load i64, ptr %116, align 8, !tbaa !43
  %118 = add i64 %117, %114
  store i64 %118, ptr %116, align 8, !tbaa !43
  br label %119

119:                                              ; preds = %65, %109
  %120 = load ptr, ptr %6, align 8, !tbaa !12
  %121 = getelementptr inbounds i8, ptr %120, i64 2
  %122 = load i8, ptr %121, align 1, !tbaa !28
  %123 = zext i8 %122 to i64
  %124 = shl i64 %123, 16
  %125 = load ptr, ptr %5, align 8, !tbaa !12
  %126 = getelementptr inbounds nuw %"struct.duckdb_zstd::BIT_DStream_t", ptr %125, i32 0, i32 0
  %127 = load i64, ptr %126, align 8, !tbaa !43
  %128 = add i64 %127, %124
  store i64 %128, ptr %126, align 8, !tbaa !43
  br label %129

129:                                              ; preds = %65, %119
  %130 = load ptr, ptr %6, align 8, !tbaa !12
  %131 = getelementptr inbounds i8, ptr %130, i64 1
  %132 = load i8, ptr %131, align 1, !tbaa !28
  %133 = zext i8 %132 to i64
  %134 = shl i64 %133, 8
  %135 = load ptr, ptr %5, align 8, !tbaa !12
  %136 = getelementptr inbounds nuw %"struct.duckdb_zstd::BIT_DStream_t", ptr %135, i32 0, i32 0
  %137 = load i64, ptr %136, align 8, !tbaa !43
  %138 = add i64 %137, %134
  store i64 %138, ptr %136, align 8, !tbaa !43
  br label %139

139:                                              ; preds = %65, %129
  br label %140

140:                                              ; preds = %139
  call void @llvm.lifetime.start.p0(i64 1, ptr %10) #13
  %141 = load ptr, ptr %6, align 8, !tbaa !12
  %142 = load i64, ptr %7, align 8, !tbaa !13
  %143 = sub i64 %142, 1
  %144 = getelementptr inbounds nuw i8, ptr %141, i64 %143
  %145 = load i8, ptr %144, align 1, !tbaa !28
  store i8 %145, ptr %10, align 1, !tbaa !28
  %146 = load i8, ptr %10, align 1, !tbaa !28
  %147 = icmp ne i8 %146, 0
  br i1 %147, label %148, label %153

148:                                              ; preds = %140
  %149 = load i8, ptr %10, align 1, !tbaa !28
  %150 = zext i8 %149 to i32
  %151 = call noundef i32 @_ZN11duckdb_zstdL14ZSTD_highbit32Ej(i32 noundef %150)
  %152 = sub i32 8, %151
  br label %154

153:                                              ; preds = %140
  br label %154

154:                                              ; preds = %153, %148
  %155 = phi i32 [ %152, %148 ], [ 0, %153 ]
  %156 = load ptr, ptr %5, align 8, !tbaa !12
  %157 = getelementptr inbounds nuw %"struct.duckdb_zstd::BIT_DStream_t", ptr %156, i32 0, i32 1
  store i32 %155, ptr %157, align 8, !tbaa !44
  %158 = load i8, ptr %10, align 1, !tbaa !28
  %159 = zext i8 %158 to i32
  %160 = icmp eq i32 %159, 0
  br i1 %160, label %161, label %162

161:                                              ; preds = %154
  store i64 -20, ptr %4, align 8
  store i32 1, ptr %9, align 4
  br label %163

162:                                              ; preds = %154
  store i32 0, ptr %9, align 4
  br label %163

163:                                              ; preds = %162, %161
  call void @llvm.lifetime.end.p0(i64 1, ptr %10) #13
  %164 = load i32, ptr %9, align 4
  switch i32 %164, label %178 [
    i32 0, label %165
    i32 1, label %176
  ]

165:                                              ; preds = %163
  %166 = load i64, ptr %7, align 8, !tbaa !13
  %167 = sub i64 8, %166
  %168 = trunc i64 %167 to i32
  %169 = mul i32 %168, 8
  %170 = load ptr, ptr %5, align 8, !tbaa !12
  %171 = getelementptr inbounds nuw %"struct.duckdb_zstd::BIT_DStream_t", ptr %170, i32 0, i32 1
  %172 = load i32, ptr %171, align 8, !tbaa !44
  %173 = add i32 %172, %169
  store i32 %173, ptr %171, align 8, !tbaa !44
  br label %174

174:                                              ; preds = %165, %64
  %175 = load i64, ptr %7, align 8, !tbaa !13
  store i64 %175, ptr %4, align 8
  br label %176

176:                                              ; preds = %174, %163, %62, %13
  %177 = load i64, ptr %4, align 8
  ret i64 %177

178:                                              ; preds = %163, %62
  unreachable
}